target datalayout = "e-m:e-p270:32:32-p271:32:32-p272:64:64-i64:64-i128:128-f80:128-n8:16:32:64-S128"
target triple = "x86_64-pc-linux-gnu"

%struct.SurfaceDataRasInfo = type { %struct.SurfaceDataBounds, ptr, i32, i32, i32, i32, ptr, ptr, ptr, ptr, ptr, ptr, i32, %union.anon.0 }
%struct.SurfaceDataBounds = type { i32, i32, i32, i32 }
%union.anon.0 = type { ptr, [56 x i8] }

; Function Attrs: nounwind uwtable
define hidden void @ByteGrayToByteIndexedConvert(ptr noundef %0, ptr noundef %1, i32 noundef %2, i32 noundef %3, ptr noundef %4, ptr noundef %5, ptr noundef %6, ptr noundef %7) #0 {
  %9 = alloca ptr, align 8
  %10 = alloca ptr, align 8
  %11 = alloca i32, align 4
  %12 = alloca i32, align 4
  %13 = alloca ptr, align 8
  %14 = alloca ptr, align 8
  %15 = alloca ptr, align 8
  %16 = alloca ptr, align 8
  %17 = alloca i32, align 4
  %18 = alloca i32, align 4
  %19 = alloca i32, align 4
  %20 = alloca ptr, align 8
  %21 = alloca ptr, align 8
  %22 = alloca ptr, align 8
  %23 = alloca ptr, align 8
  %24 = alloca ptr, align 8
  %25 = alloca ptr, align 8
  %26 = alloca i32, align 4
  %27 = alloca i32, align 4
  %28 = alloca i32, align 4
  %29 = alloca i32, align 4
  %30 = alloca i32, align 4
  %31 = alloca i32, align 4
  store ptr %0, ptr %9, align 8
  store ptr %1, ptr %10, align 8
  store i32 %2, ptr %11, align 4
  store i32 %3, ptr %12, align 4
  store ptr %4, ptr %13, align 8
  store ptr %5, ptr %14, align 8
  store ptr %6, ptr %15, align 8
  store ptr %7, ptr %16, align 8
  br label %32

32:                                               ; preds = %8
  %33 = load ptr, ptr %9, align 8
  store ptr %33, ptr %24, align 8
  %34 = load ptr, ptr %10, align 8
  store ptr %34, ptr %25, align 8
  %35 = load ptr, ptr %13, align 8
  %36 = getelementptr inbounds %struct.SurfaceDataRasInfo, ptr %35, i32 0, i32 4
  %37 = load i32, ptr %36, align 8
  store i32 %37, ptr %26, align 4
  %38 = load ptr, ptr %14, align 8
  %39 = getelementptr inbounds %struct.SurfaceDataRasInfo, ptr %38, i32 0, i32 4
  %40 = load i32, ptr %39, align 8
  store i32 %40, ptr %27, align 4
  br label %41

41:                                               ; preds = %32
  br label %42

42:                                               ; preds = %41
  %43 = load ptr, ptr %14, align 8
  %44 = getelementptr inbounds %struct.SurfaceDataRasInfo, ptr %43, i32 0, i32 0
  %45 = getelementptr inbounds %struct.SurfaceDataBounds, ptr %44, i32 0, i32 1
  %46 = load i32, ptr %45, align 4
  %47 = and i32 %46, 7
  %48 = shl i32 %47, 3
  store i32 %48, ptr %18, align 4
  br label %49

49:                                               ; preds = %42
  %50 = load ptr, ptr %14, align 8
  %51 = getelementptr inbounds %struct.SurfaceDataRasInfo, ptr %50, i32 0, i32 7
  %52 = load ptr, ptr %51, align 8
  store ptr %52, ptr %23, align 8
  %53 = load ptr, ptr %14, align 8
  %54 = getelementptr inbounds %struct.SurfaceDataRasInfo, ptr %53, i32 0, i32 12
  %55 = load i32, ptr %54, align 8
  store i32 %55, ptr %19, align 4
  br label %56

56:                                               ; preds = %49
  %57 = load i32, ptr %11, align 4
  %58 = mul i32 %57, 1
  %59 = load i32, ptr %26, align 4
  %60 = sub i32 %59, %58
  store i32 %60, ptr %26, align 4
  %61 = load i32, ptr %11, align 4
  %62 = mul i32 %61, 1
  %63 = load i32, ptr %27, align 4
  %64 = sub i32 %63, %62
  store i32 %64, ptr %27, align 4
  br label %65

65:                                               ; preds = %244, %56
  %66 = load i32, ptr %11, align 4
  store i32 %66, ptr %28, align 4
  br label %67

67:                                               ; preds = %65
  %68 = load ptr, ptr %14, align 8
  %69 = getelementptr inbounds %struct.SurfaceDataRasInfo, ptr %68, i32 0, i32 8
  %70 = load ptr, ptr %69, align 8
  %71 = load i32, ptr %18, align 4
  %72 = sext i32 %71 to i64
  %73 = getelementptr inbounds i8, ptr %70, i64 %72
  store ptr %73, ptr %20, align 8
  %74 = load ptr, ptr %14, align 8
  %75 = getelementptr inbounds %struct.SurfaceDataRasInfo, ptr %74, i32 0, i32 9
  %76 = load ptr, ptr %75, align 8
  %77 = load i32, ptr %18, align 4
  %78 = sext i32 %77 to i64
  %79 = getelementptr inbounds i8, ptr %76, i64 %78
  store ptr %79, ptr %21, align 8
  %80 = load ptr, ptr %14, align 8
  %81 = getelementptr inbounds %struct.SurfaceDataRasInfo, ptr %80, i32 0, i32 10
  %82 = load ptr, ptr %81, align 8
  %83 = load i32, ptr %18, align 4
  %84 = sext i32 %83 to i64
  %85 = getelementptr inbounds i8, ptr %82, i64 %84
  store ptr %85, ptr %22, align 8
  %86 = load ptr, ptr %14, align 8
  %87 = getelementptr inbounds %struct.SurfaceDataRasInfo, ptr %86, i32 0, i32 0
  %88 = getelementptr inbounds %struct.SurfaceDataBounds, ptr %87, i32 0, i32 0
  %89 = load i32, ptr %88, align 8
  %90 = and i32 %89, 7
  store i32 %90, ptr %17, align 4
  br label %91

91:                                               ; preds = %67
  br label %92

92:                                               ; preds = %224, %91
  br label %93

93:                                               ; preds = %92
  %94 = load ptr, ptr %24, align 8
  %95 = getelementptr inbounds i8, ptr %94, i64 0
  %96 = load i8, ptr %95, align 1
  %97 = zext i8 %96 to i32
  store i32 %97, ptr %31, align 4
  store i32 %97, ptr %30, align 4
  store i32 %97, ptr %29, align 4
  br label %98

98:                                               ; preds = %93
  %99 = load i32, ptr %29, align 4
  %100 = icmp eq i32 %99, 0
  br i1 %100, label %104, label %101

101:                                              ; preds = %98
  %102 = load i32, ptr %29, align 4
  %103 = icmp eq i32 %102, 255
  br i1 %103, label %104, label %119

104:                                              ; preds = %101, %98
  %105 = load i32, ptr %30, align 4
  %106 = icmp eq i32 %105, 0
  br i1 %106, label %110, label %107

107:                                              ; preds = %104
  %108 = load i32, ptr %30, align 4
  %109 = icmp eq i32 %108, 255
  br i1 %109, label %110, label %119

110:                                              ; preds = %107, %104
  %111 = load i32, ptr %31, align 4
  %112 = icmp eq i32 %111, 0
  br i1 %112, label %116, label %113

113:                                              ; preds = %110
  %114 = load i32, ptr %31, align 4
  %115 = icmp eq i32 %114, 255
  br i1 %115, label %116, label %119

116:                                              ; preds = %113, %110
  %117 = load i32, ptr %19, align 4
  %118 = icmp ne i32 %117, 0
  br i1 %118, label %144, label %119

119:                                              ; preds = %116, %113, %107, %101
  %120 = load ptr, ptr %20, align 8
  %121 = load i32, ptr %17, align 4
  %122 = sext i32 %121 to i64
  %123 = getelementptr inbounds i8, ptr %120, i64 %122
  %124 = load i8, ptr %123, align 1
  %125 = sext i8 %124 to i32
  %126 = load i32, ptr %29, align 4
  %127 = add nsw i32 %126, %125
  store i32 %127, ptr %29, align 4
  %128 = load ptr, ptr %21, align 8
  %129 = load i32, ptr %17, align 4
  %130 = sext i32 %129 to i64
  %131 = getelementptr inbounds i8, ptr %128, i64 %130
  %132 = load i8, ptr %131, align 1
  %133 = sext i8 %132 to i32
  %134 = load i32, ptr %30, align 4
  %135 = add nsw i32 %134, %133
  store i32 %135, ptr %30, align 4
  %136 = load ptr, ptr %22, align 8
  %137 = load i32, ptr %17, align 4
  %138 = sext i32 %137 to i64
  %139 = getelementptr inbounds i8, ptr %136, i64 %138
  %140 = load i8, ptr %139, align 1
  %141 = sext i8 %140 to i32
  %142 = load i32, ptr %31, align 4
  %143 = add nsw i32 %142, %141
  store i32 %143, ptr %31, align 4
  br label %144

144:                                              ; preds = %119, %116
  br label %145

145:                                              ; preds = %144
  %146 = load i32, ptr %29, align 4
  %147 = load i32, ptr %30, align 4
  %148 = or i32 %146, %147
  %149 = load i32, ptr %31, align 4
  %150 = or i32 %148, %149
  %151 = ashr i32 %150, 8
  %152 = icmp ne i32 %151, 0
  br i1 %152, label %153, label %187

153:                                              ; preds = %145
  br label %154

154:                                              ; preds = %153
  %155 = load i32, ptr %29, align 4
  %156 = ashr i32 %155, 8
  %157 = icmp ne i32 %156, 0
  br i1 %157, label %158, label %163

158:                                              ; preds = %154
  %159 = load i32, ptr %29, align 4
  %160 = ashr i32 %159, 31
  %161 = xor i32 %160, -1
  %162 = and i32 %161, 255
  store i32 %162, ptr %29, align 4
  br label %163

163:                                              ; preds = %158, %154
  br label %164

164:                                              ; preds = %163
  br label %165

165:                                              ; preds = %164
  %166 = load i32, ptr %30, align 4
  %167 = ashr i32 %166, 8
  %168 = icmp ne i32 %167, 0
  br i1 %168, label %169, label %174

169:                                              ; preds = %165
  %170 = load i32, ptr %30, align 4
  %171 = ashr i32 %170, 31
  %172 = xor i32 %171, -1
  %173 = and i32 %172, 255
  store i32 %173, ptr %30, align 4
  br label %174

174:                                              ; preds = %169, %165
  br label %175

175:                                              ; preds = %174
  br label %176

176:                                              ; preds = %175
  %177 = load i32, ptr %31, align 4
  %178 = ashr i32 %177, 8
  %179 = icmp ne i32 %178, 0
  br i1 %179, label %180, label %185

180:                                              ; preds = %176
  %181 = load i32, ptr %31, align 4
  %182 = ashr i32 %181, 31
  %183 = xor i32 %182, -1
  %184 = and i32 %183, 255
  store i32 %184, ptr %31, align 4
  br label %185

185:                                              ; preds = %180, %176
  br label %186

186:                                              ; preds = %185
  br label %187

187:                                              ; preds = %186, %145
  br label %188

188:                                              ; preds = %187
  %189 = load ptr, ptr %23, align 8
  %190 = load i32, ptr %29, align 4
  %191 = trunc i32 %190 to i8
  %192 = zext i8 %191 to i32
  %193 = ashr i32 %192, 3
  %194 = shl i32 %193, 10
  %195 = load i32, ptr %30, align 4
  %196 = trunc i32 %195 to i8
  %197 = zext i8 %196 to i32
  %198 = ashr i32 %197, 3
  %199 = shl i32 %198, 5
  %200 = add nsw i32 %194, %199
  %201 = load i32, ptr %31, align 4
  %202 = trunc i32 %201 to i8
  %203 = zext i8 %202 to i32
  %204 = ashr i32 %203, 3
  %205 = add nsw i32 %200, %204
  %206 = sext i32 %205 to i64
  %207 = getelementptr inbounds i8, ptr %189, i64 %206
  %208 = load i8, ptr %207, align 1
  %209 = load ptr, ptr %25, align 8
  %210 = getelementptr inbounds i8, ptr %209, i64 0
  store i8 %208, ptr %210, align 1
  br label %211

211:                                              ; preds = %188
  br label %212

212:                                              ; preds = %211
  %213 = load ptr, ptr %24, align 8
  %214 = ptrtoint ptr %213 to i64
  %215 = add nsw i64 %214, 1
  %216 = inttoptr i64 %215 to ptr
  store ptr %216, ptr %24, align 8
  %217 = load ptr, ptr %25, align 8
  %218 = ptrtoint ptr %217 to i64
  %219 = add nsw i64 %218, 1
  %220 = inttoptr i64 %219 to ptr
  store ptr %220, ptr %25, align 8
  %221 = load i32, ptr %17, align 4
  %222 = add nsw i32 %221, 1
  %223 = and i32 %222, 7
  store i32 %223, ptr %17, align 4
  br label %224

224:                                              ; preds = %212
  %225 = load i32, ptr %28, align 4
  %226 = add i32 %225, -1
  store i32 %226, ptr %28, align 4
  %227 = icmp ugt i32 %226, 0
  br i1 %227, label %92, label %228, !llvm.loop !11

228:                                              ; preds = %224
  %229 = load ptr, ptr %24, align 8
  %230 = ptrtoint ptr %229 to i64
  %231 = load i32, ptr %26, align 4
  %232 = sext i32 %231 to i64
  %233 = add nsw i64 %230, %232
  %234 = inttoptr i64 %233 to ptr
  store ptr %234, ptr %24, align 8
  %235 = load ptr, ptr %25, align 8
  %236 = ptrtoint ptr %235 to i64
  %237 = load i32, ptr %27, align 4
  %238 = sext i32 %237 to i64
  %239 = add nsw i64 %236, %238
  %240 = inttoptr i64 %239 to ptr
  store ptr %240, ptr %25, align 8
  %241 = load i32, ptr %18, align 4
  %242 = add nsw i32 %241, 8
  %243 = and i32 %242, 56
  store i32 %243, ptr %18, align 4
  br label %244

244:                                              ; preds = %228
  %245 = load i32, ptr %12, align 4
  %246 = add i32 %245, -1
  store i32 %246, ptr %12, align 4
  %247 = icmp ugt i32 %246, 0
  br i1 %247, label %65, label %248, !llvm.loop !12

248:                                              ; preds = %244
  br label %249

249:                                              ; preds = %248
  ret void
}