; Function Attrs: nofree norecurse nosync nounwind memory(readwrite, inaccessiblemem: none) uwtable
define hidden void @ByteGrayToByteIndexedConvert(ptr noundef %0, ptr noundef %1, i32 noundef %2, i32 noundef %3, ptr nocapture noundef readonly %4, ptr nocapture noundef readonly %5, ptr nocapture readnone %6, ptr nocapture readnone %7) #0 {
  %9 = getelementptr inbounds i8, ptr %4, i64 32
  %10 = load i32, ptr %9, align 8
  %11 = getelementptr inbounds i8, ptr %5, i64 32
  %12 = load i32, ptr %11, align 8
  %13 = getelementptr inbounds i8, ptr %5, i64 4
  %14 = load i32, ptr %13, align 4
  %15 = shl i32 %14, 3
  %16 = getelementptr inbounds i8, ptr %5, i64 48
  %17 = load ptr, ptr %16, align 8
  %18 = getelementptr inbounds i8, ptr %5, i64 88
  %19 = load i32, ptr %18, align 8
  %20 = sub i32 %10, %2
  %21 = sub i32 %12, %2
  %22 = sext i32 %20 to i64
  %23 = getelementptr inbounds i8, ptr %5, i64 56
  %24 = getelementptr inbounds i8, ptr %5, i64 64
  %25 = getelementptr inbounds i8, ptr %5, i64 72
  %.fr = freeze i32 %19
  %.not = icmp eq i32 %.fr, 0
  %26 = sext i32 %21 to i64
  br i1 %.not, label %.split.us.us, label %.split

.split.us.us:                                     ; preds = %8, %.split92.us.us
  %.078.in.us = phi i32 [ %83, %.split92.us.us ], [ %15, %8 ]
  %.076.us = phi i32 [ %84, %.split92.us.us ], [ %3, %8 ]
  %.074.us = phi ptr [ %80, %.split92.us.us ], [ %0, %8 ]
  %.072.us = phi ptr [ %82, %.split92.us.us ], [ %1, %8 ]
  %.078.us = and i32 %.078.in.us, 56
  %27 = load ptr, ptr %23, align 8
  %28 = zext nneg i32 %.078.us to i64
  %29 = getelementptr inbounds i8, ptr %27, i64 %28
  %30 = load ptr, ptr %24, align 8
  %31 = getelementptr inbounds i8, ptr %30, i64 %28
  %32 = load ptr, ptr %25, align 8
  %33 = getelementptr inbounds i8, ptr %32, i64 %28
  %34 = load i32, ptr %5, align 8
  br label %35

35:                                               ; preds = %60, %.split.us.us
  %.077.in.us.us = phi i32 [ %34, %.split.us.us ], [ %77, %60 ]
  %.175.us.us = phi ptr [ %.074.us, %.split.us.us ], [ %73, %60 ]
  %.173.us.us = phi ptr [ %.072.us, %.split.us.us ], [ %76, %60 ]
  %.071.us.us = phi i32 [ %2, %.split.us.us ], [ %78, %60 ]
  %.077.us.us = and i32 %.077.in.us.us, 7
  %36 = load i8, ptr %.175.us.us, align 1
  %37 = zext i8 %36 to i32
  %38 = zext nneg i32 %.077.us.us to i64
  %39 = getelementptr inbounds i8, ptr %29, i64 %38
  %40 = load i8, ptr %39, align 1
  %41 = sext i8 %40 to i32
  %42 = add nsw i32 %41, %37
  %43 = getelementptr inbounds i8, ptr %31, i64 %38
  %44 = load i8, ptr %43, align 1
  %45 = sext i8 %44 to i32
  %46 = add nsw i32 %45, %37
  %47 = getelementptr inbounds i8, ptr %33, i64 %38
  %48 = load i8, ptr %47, align 1
  %49 = sext i8 %48 to i32
  %50 = add nsw i32 %49, %37
  %51 = or i32 %46, %42
  %52 = or i32 %51, %50
  %.not81.us.us = icmp ult i32 %52, 256
  br i1 %.not81.us.us, label %60, label %53

53:                                               ; preds = %35
  %54 = tail call i32 @llvm.smax.i32(i32 %42, i32 0)
  %55 = tail call i32 @llvm.umin.i32(i32 %54, i32 255)
  %56 = tail call i32 @llvm.smax.i32(i32 %46, i32 0)
  %57 = tail call i32 @llvm.umin.i32(i32 %56, i32 255)
  %.not85.us.us = icmp ult i32 %50, 256
  br i1 %.not85.us.us, label %60, label %58

58:                                               ; preds = %53
  %isnotneg.inv86.us.us = icmp slt i32 %50, 0
  %59 = select i1 %isnotneg.inv86.us.us, i32 0, i32 255
  br label %60

60:                                               ; preds = %58, %53, %35
  %.270.us.us = phi i32 [ %55, %58 ], [ %55, %53 ], [ %42, %35 ]
  %.2.us.us = phi i32 [ %57, %58 ], [ %57, %53 ], [ %46, %35 ]
  %.1.us.us = phi i32 [ %59, %58 ], [ %50, %53 ], [ %50, %35 ]
  %61 = shl nsw i32 %.270.us.us, 7
  %62 = and i32 %61, 31744
  %63 = shl nsw i32 %.2.us.us, 2
  %64 = and i32 %63, 992
  %65 = or disjoint i32 %64, %62
  %66 = lshr i32 %.1.us.us, 3
  %67 = or disjoint i32 %65, %66
  %68 = zext nneg i32 %67 to i64
  %69 = getelementptr inbounds i8, ptr %17, i64 %68
  %70 = load i8, ptr %69, align 1
  store i8 %70, ptr %.173.us.us, align 1
  %71 = ptrtoint ptr %.175.us.us to i64
  %72 = add nsw i64 %71, 1
  %73 = inttoptr i64 %72 to ptr
  %74 = ptrtoint ptr %.173.us.us to i64
  %75 = add nsw i64 %74, 1
  %76 = inttoptr i64 %75 to ptr
  %77 = add nuw nsw i32 %.077.us.us, 1
  %78 = add i32 %.071.us.us, -1
  %.not87.us.us = icmp eq i32 %78, 0
  br i1 %.not87.us.us, label %.split92.us.us, label %35, !llvm.loop !11

.split92.us.us:                                   ; preds = %60
  %79 = add nsw i64 %72, %22
  %80 = inttoptr i64 %79 to ptr
  %81 = add nsw i64 %75, %26
  %82 = inttoptr i64 %81 to ptr
  %83 = add nuw nsw i32 %.078.us, 8
  %84 = add i32 %.076.us, -1
  %.not88.us = icmp eq i32 %84, 0
  br i1 %.not88.us, label %.split96.us, label %.split.us.us, !llvm.loop !12

.split:                                           ; preds = %8, %.split92
  %.078.in = phi i32 [ %144, %.split92 ], [ %15, %8 ]
  %.076 = phi i32 [ %145, %.split92 ], [ %3, %8 ]
  %.074 = phi ptr [ %141, %.split92 ], [ %0, %8 ]
  %.072 = phi ptr [ %143, %.split92 ], [ %1, %8 ]
  %.078 = and i32 %.078.in, 56
  %85 = load ptr, ptr %23, align 8
  %86 = zext nneg i32 %.078 to i64
  %87 = getelementptr inbounds i8, ptr %85, i64 %86
  %88 = load ptr, ptr %24, align 8
  %89 = getelementptr inbounds i8, ptr %88, i64 %86
  %90 = load ptr, ptr %25, align 8
  %91 = getelementptr inbounds i8, ptr %90, i64 %86
  %92 = load i32, ptr %5, align 8
  br label %93

93:                                               ; preds = %121, %.split
  %.077.in = phi i32 [ %92, %.split ], [ %138, %121 ]
  %.175 = phi ptr [ %.074, %.split ], [ %134, %121 ]
  %.173 = phi ptr [ %.072, %.split ], [ %137, %121 ]
  %.071 = phi i32 [ %2, %.split ], [ %139, %121 ]
  %.077 = and i32 %.077.in, 7
  %94 = load i8, ptr %.175, align 1
  %95 = zext i8 %94 to i32
  %96 = add i8 %94, -1
  %or.cond = icmp ult i8 %96, -2
  br i1 %or.cond, label %97, label %111

97:                                               ; preds = %93
  %98 = zext nneg i32 %.077 to i64
  %99 = getelementptr inbounds i8, ptr %87, i64 %98
  %100 = load i8, ptr %99, align 1
  %101 = sext i8 %100 to i32
  %102 = add nsw i32 %101, %95
  %103 = getelementptr inbounds i8, ptr %89, i64 %98
  %104 = load i8, ptr %103, align 1
  %105 = sext i8 %104 to i32
  %106 = add nsw i32 %105, %95
  %107 = getelementptr inbounds i8, ptr %91, i64 %98
  %108 = load i8, ptr %107, align 1
  %109 = sext i8 %108 to i32
  %110 = add nsw i32 %109, %95
  br label %111

111:                                              ; preds = %93, %97
  %.068 = phi i32 [ %102, %97 ], [ %95, %93 ]
  %.066 = phi i32 [ %106, %97 ], [ %95, %93 ]
  %.0 = phi i32 [ %110, %97 ], [ %95, %93 ]
  %112 = or i32 %.066, %.068
  %113 = or i32 %112, %.0
  %.not81 = icmp ult i32 %113, 256
  br i1 %.not81, label %121, label %114

114:                                              ; preds = %111
  %115 = tail call i32 @llvm.smax.i32(i32 %.068, i32 0)
  %116 = tail call i32 @llvm.umin.i32(i32 %115, i32 255)
  %117 = tail call i32 @llvm.smax.i32(i32 %.066, i32 0)
  %118 = tail call i32 @llvm.umin.i32(i32 %117, i32 255)
  %.not85 = icmp ult i32 %.0, 256
  br i1 %.not85, label %121, label %119

119:                                              ; preds = %114
  %isnotneg.inv86 = icmp slt i32 %.0, 0
  %120 = select i1 %isnotneg.inv86, i32 0, i32 255
  br label %121

121:                                              ; preds = %111, %114, %119
  %.270 = phi i32 [ %116, %119 ], [ %116, %114 ], [ %.068, %111 ]
  %.2 = phi i32 [ %118, %119 ], [ %118, %114 ], [ %.066, %111 ]
  %.1 = phi i32 [ %120, %119 ], [ %.0, %114 ], [ %.0, %111 ]
  %122 = shl nsw i32 %.270, 7
  %123 = and i32 %122, 31744
  %124 = shl nsw i32 %.2, 2
  %125 = and i32 %124, 992
  %126 = or disjoint i32 %125, %123
  %127 = lshr i32 %.1, 3
  %128 = or disjoint i32 %126, %127
  %129 = zext nneg i32 %128 to i64
  %130 = getelementptr inbounds i8, ptr %17, i64 %129
  %131 = load i8, ptr %130, align 1
  store i8 %131, ptr %.173, align 1
  %132 = ptrtoint ptr %.175 to i64
  %133 = add nsw i64 %132, 1
  %134 = inttoptr i64 %133 to ptr
  %135 = ptrtoint ptr %.173 to i64
  %136 = add nsw i64 %135, 1
  %137 = inttoptr i64 %136 to ptr
  %138 = add nuw nsw i32 %.077, 1
  %139 = add i32 %.071, -1
  %.not87 = icmp eq i32 %139, 0
  br i1 %.not87, label %.split92, label %93, !llvm.loop !11

.split92:                                         ; preds = %121
  %140 = add nsw i64 %133, %22
  %141 = inttoptr i64 %140 to ptr
  %142 = add nsw i64 %136, %26
  %143 = inttoptr i64 %142 to ptr
  %144 = add nuw nsw i32 %.078, 8
  %145 = add i32 %.076, -1
  %.not88 = icmp eq i32 %145, 0
  br i1 %.not88, label %.split96.us, label %.split, !llvm.loop !12

.split96.us:                                      ; preds = %.split92, %.split92.us.us
  ret void
}